target datalayout = "e-m:e-p270:32:32-p271:32:32-p272:64:64-i64:64-i128:128-f80:128-n8:16:32:64-S128"
target triple = "x86_64-unknown-linux-gnu"

; Function Attrs: fn_ret_thunk_extern nounwind null_pointer_is_valid
define dso_local i32 @LZ4_decompress_fast_usingDict(ptr noundef %0, ptr noundef %1, i32 noundef %2, ptr noundef %3, i32 noundef %4) #0 align 16 {
  %6 = alloca i32, align 4
  %7 = alloca ptr, align 8
  %8 = alloca ptr, align 8
  %9 = alloca i32, align 4
  %10 = alloca ptr, align 8
  %11 = alloca i32, align 4
  store ptr %0, ptr %7, align 8
  store ptr %1, ptr %8, align 8
  store i32 %2, ptr %9, align 4
  store ptr %3, ptr %10, align 8
  store i32 %4, ptr %11, align 4
  %12 = load i32, ptr %11, align 4
  %13 = icmp eq i32 %12, 0
  br i1 %13, label %21, label %14

14:                                               ; preds = %5
  %15 = load ptr, ptr %10, align 8
  %16 = load i32, ptr %11, align 4
  %17 = sext i32 %16 to i64
  %18 = getelementptr i8, ptr %15, i64 %17
  %19 = load ptr, ptr %8, align 8
  %20 = icmp eq ptr %18, %19
  br i1 %20, label %21, label %26

21:                                               ; preds = %14, %5
  %22 = load ptr, ptr %7, align 8
  %23 = load ptr, ptr %8, align 8
  %24 = load i32, ptr %9, align 4
  %25 = call i32 @LZ4_decompress_fast(ptr noundef %22, ptr noundef %23, i32 noundef %24)
  store i32 %25, ptr %6, align 4
  br label %34

26:                                               ; preds = %14
  %27 = load ptr, ptr %7, align 8
  %28 = load ptr, ptr %8, align 8
  %29 = load i32, ptr %9, align 4
  %30 = load ptr, ptr %10, align 8
  %31 = load i32, ptr %11, align 4
  %32 = sext i32 %31 to i64
  %33 = call i32 @LZ4_decompress_fast_extDict(ptr noundef %27, ptr noundef %28, i32 noundef %29, ptr noundef %30, i64 noundef %32)
  store i32 %33, ptr %6, align 4
  br label %34

34:                                               ; preds = %26, %21
  %35 = load i32, ptr %6, align 4
  ret i32 %35
}