; Function Attrs: fn_ret_thunk_extern nofree norecurse nosync nounwind null_pointer_is_valid memory(readwrite, inaccessiblemem: none)
define dso_local i32 @LZ4_decompress_fast_usingDict(ptr noundef %0, ptr noundef %1, i32 noundef %2, ptr noundef readonly %3, i32 noundef %4) #0 align 16 {
  %6 = icmp eq i32 %4, 0
  br i1 %6, label %11, label %7

7:                                                ; preds = %5
  %8 = sext i32 %4 to i64
  %9 = getelementptr i8, ptr %3, i64 %8
  %10 = icmp eq ptr %9, %1
  br i1 %10, label %11, label %13

11:                                               ; preds = %7, %5
  %12 = tail call i32 @LZ4_decompress_fast(ptr noundef %0, ptr noundef %1, i32 noundef %2)
  br label %15

13:                                               ; preds = %7
  %14 = tail call fastcc i32 @LZ4_decompress_fast_extDict(ptr noundef %0, ptr noundef %1, i32 noundef %2, ptr noundef %3, i64 noundef %8)
  br label %15

15:                                               ; preds = %13, %11
  %.0 = phi i32 [ %12, %11 ], [ %14, %13 ]
  ret i32 %.0
}